; Function Attrs: mustprogress uwtable
define void @_ZN2cv20edgePreservingFilterERKNS_11_InputArrayERKNS_12_OutputArrayEiff(ptr noundef nonnull align 8 dereferenceable(24) %0, ptr noundef nonnull align 8 dereferenceable(24) %1, i32 noundef %2, float noundef %3, float noundef %4) local_unnamed_addr #5 personality ptr @__gxx_personality_v0 {
  %6 = alloca %"class.cv::utils::trace::details::Region", align 8
  %7 = alloca %"class.cv::Mat", align 8
  %8 = alloca %class.Domain_Filter, align 8
  %9 = alloca %"class.cv::Mat", align 8
  %10 = alloca %"class.cv::_OutputArray", align 8
  %11 = alloca %"class.cv::Mat", align 8
  %12 = alloca %"class.cv::_InputArray", align 8
  call void @llvm.lifetime.start.p0(i64 16, ptr nonnull %6) #15
  call void @_ZN2cv5utils5trace7details6RegionC1ERKNS3_21LocationStaticStorageE(ptr noundef nonnull align 8 dereferenceable(12) %6, ptr noundef nonnull align 8 dereferenceable(32) @_ZZN2cv20edgePreservingFilterERKNS_11_InputArrayERKNS_12_OutputArrayEiffE24__cv_trace_location_fn54)
  call void @llvm.lifetime.start.p0(i64 96, ptr nonnull %7) #15
  %13 = invoke noundef i32 @_ZNK2cv11_InputArray4kindEv(ptr noundef nonnull align 8 dereferenceable(24) %0)
          to label %.noexc unwind label %41

.noexc:                                           ; preds = %5
  %14 = icmp eq i32 %13, 65536
  br i1 %14, label %15, label %18

15:                                               ; preds = %.noexc
  %16 = getelementptr inbounds nuw i8, ptr %0, i64 8
  %17 = load ptr, ptr %16, align 8, !tbaa !42, !noalias !157
  invoke void @_ZN2cv3MatC1ERKS0_(ptr noundef nonnull align 8 dereferenceable(96) %7, ptr noundef nonnull align 8 dereferenceable(96) %17)
          to label %19 unwind label %41

18:                                               ; preds = %.noexc
  invoke void @_ZNK2cv11_InputArray7getMat_Ei(ptr dead_on_unwind nonnull writable sret(%"class.cv::Mat") align 8 %7, ptr noundef nonnull align 8 dereferenceable(24) %0, i32 noundef -1)
          to label %19 unwind label %41

19:                                               ; preds = %18, %15
  call void @llvm.lifetime.start.p0(i64 768, ptr nonnull %8) #15
  call void @_ZN2cv3MatC1Ev(ptr noundef nonnull align 8 dereferenceable(768) %8) #15
  %20 = getelementptr inbounds nuw i8, ptr %8, i64 96
  call void @_ZN2cv3MatC1Ev(ptr noundef nonnull align 8 dereferenceable(96) %20) #15
  %21 = getelementptr inbounds nuw i8, ptr %8, i64 192
  call void @_ZN2cv3MatC1Ev(ptr noundef nonnull align 8 dereferenceable(96) %21) #15
  %22 = getelementptr inbounds nuw i8, ptr %8, i64 288
  call void @_ZN2cv3MatC1Ev(ptr noundef nonnull align 8 dereferenceable(96) %22) #15
  %23 = getelementptr inbounds nuw i8, ptr %8, i64 384
  call void @_ZN2cv3MatC1Ev(ptr noundef nonnull align 8 dereferenceable(96) %23) #15
  %24 = getelementptr inbounds nuw i8, ptr %8, i64 480
  call void @_ZN2cv3MatC1Ev(ptr noundef nonnull align 8 dereferenceable(96) %24) #15
  %25 = getelementptr inbounds nuw i8, ptr %8, i64 576
  call void @_ZN2cv3MatC1Ev(ptr noundef nonnull align 8 dereferenceable(96) %25) #15
  %26 = getelementptr inbounds nuw i8, ptr %8, i64 672
  call void @_ZN2cv3MatC1Ev(ptr noundef nonnull align 8 dereferenceable(96) %26) #15
  call void @llvm.lifetime.start.p0(i64 96, ptr nonnull %9) #15
  call void @_ZN2cv3MatC1Ev(ptr noundef nonnull align 8 dereferenceable(96) %9) #15
  call void @llvm.lifetime.start.p0(i64 24, ptr nonnull %10) #15
  %27 = getelementptr inbounds nuw i8, ptr %10, i64 8
  %28 = getelementptr inbounds nuw i8, ptr %10, i64 16
  store i64 0, ptr %28, align 8
  store i32 33619968, ptr %10, align 8, !tbaa !40
  store ptr %9, ptr %27, align 8, !tbaa !42
  invoke void @_ZNK2cv3Mat9convertToERKNS_12_OutputArrayEidd(ptr noundef nonnull align 8 dereferenceable(96) %7, ptr noundef nonnull align 8 dereferenceable(24) %10, i32 noundef 21, double noundef 0x3F70101010101010, double noundef 0.000000e+00)
          to label %29 unwind label %43

29:                                               ; preds = %19
  call void @llvm.lifetime.end.p0(i64 24, ptr nonnull %10) #15
  call void @llvm.lifetime.start.p0(i64 96, ptr nonnull %11) #15
  call void @_ZN2cv3MatC1Ev(ptr noundef nonnull align 8 dereferenceable(96) %11) #15
  invoke void @_ZN13Domain_Filter6filterERKN2cv3MatERS1_ffi(ptr noundef nonnull align 8 dereferenceable(768) %8, ptr noundef nonnull align 8 dereferenceable(96) %9, ptr noundef nonnull align 8 dereferenceable(96) %11, float noundef %3, float noundef %4, i32 noundef %2)
          to label %30 unwind label %45

30:                                               ; preds = %29
  call void @llvm.lifetime.start.p0(i64 24, ptr nonnull %12) #15
  %31 = getelementptr inbounds nuw i8, ptr %12, i64 16
  store i32 0, ptr %31, align 8, !tbaa !37
  %32 = getelementptr inbounds nuw i8, ptr %12, i64 20
  store i32 0, ptr %32, align 4, !tbaa !39
  store i32 16842752, ptr %12, align 8, !tbaa !40
  %33 = getelementptr inbounds nuw i8, ptr %12, i64 8
  store ptr %11, ptr %33, align 8, !tbaa !42
  invoke void @_ZN2cv15convertScaleAbsERKNS_11_InputArrayERKNS_12_OutputArrayEdd(ptr noundef nonnull align 8 dereferenceable(24) %12, ptr noundef nonnull align 8 dereferenceable(24) %1, double noundef 2.550000e+02, double noundef 0.000000e+00)
          to label %34 unwind label %47

34:                                               ; preds = %30
  call void @llvm.lifetime.end.p0(i64 24, ptr nonnull %12) #15
  call void @_ZN2cv3MatD1Ev(ptr noundef nonnull align 8 dereferenceable(96) %11) #15
  call void @llvm.lifetime.end.p0(i64 96, ptr nonnull %11) #15
  call void @_ZN2cv3MatD1Ev(ptr noundef nonnull align 8 dereferenceable(96) %9) #15
  call void @llvm.lifetime.end.p0(i64 96, ptr nonnull %9) #15
  call void @_ZN2cv3MatD1Ev(ptr noundef nonnull align 8 dereferenceable(96) %26) #15
  call void @_ZN2cv3MatD1Ev(ptr noundef nonnull align 8 dereferenceable(96) %25) #15
  call void @_ZN2cv3MatD1Ev(ptr noundef nonnull align 8 dereferenceable(96) %24) #15
  call void @_ZN2cv3MatD1Ev(ptr noundef nonnull align 8 dereferenceable(96) %23) #15
  call void @_ZN2cv3MatD1Ev(ptr noundef nonnull align 8 dereferenceable(96) %22) #15
  call void @_ZN2cv3MatD1Ev(ptr noundef nonnull align 8 dereferenceable(96) %21) #15
  call void @_ZN2cv3MatD1Ev(ptr noundef nonnull align 8 dereferenceable(96) %20) #15
  call void @_ZN2cv3MatD1Ev(ptr noundef nonnull align 8 dereferenceable(768) %8) #15
  call void @llvm.lifetime.end.p0(i64 768, ptr nonnull %8) #15
  call void @_ZN2cv3MatD1Ev(ptr noundef nonnull align 8 dereferenceable(96) %7) #15
  call void @llvm.lifetime.end.p0(i64 96, ptr nonnull %7) #15
  %35 = getelementptr inbounds nuw i8, ptr %6, i64 8
  %36 = load i32, ptr %35, align 8, !tbaa !160
  %.not.i = icmp eq i32 %36, 0
  br i1 %.not.i, label %_ZN2cv5utils5trace7details6RegionD2Ev.exit, label %37

37:                                               ; preds = %34
  invoke void @_ZN2cv5utils5trace7details6Region7destroyEv(ptr noundef nonnull align 8 dereferenceable(12) %6)
          to label %_ZN2cv5utils5trace7details6RegionD2Ev.exit unwind label %38

38:                                               ; preds = %37
  %39 = landingpad { ptr, i32 }
          catch ptr null
  %40 = extractvalue { ptr, i32 } %39, 0
  call void @__clang_call_terminate(ptr %40) #17
  unreachable

_ZN2cv5utils5trace7details6RegionD2Ev.exit:       ; preds = %34, %37
  call void @llvm.lifetime.end.p0(i64 16, ptr nonnull %6) #15
  ret void

41:                                               ; preds = %18, %15, %5
  %42 = landingpad { ptr, i32 }
          cleanup
  br label %51

43:                                               ; preds = %19
  %44 = landingpad { ptr, i32 }
          cleanup
  call void @llvm.lifetime.end.p0(i64 24, ptr nonnull %10) #15
  br label %50

45:                                               ; preds = %29
  %46 = landingpad { ptr, i32 }
          cleanup
  br label %49

47:                                               ; preds = %30
  %48 = landingpad { ptr, i32 }
          cleanup
  call void @llvm.lifetime.end.p0(i64 24, ptr nonnull %12) #15
  br label %49

49:                                               ; preds = %47, %45
  %.pn12.pn = phi { ptr, i32 } [ %48, %47 ], [ %46, %45 ]
  call void @_ZN2cv3MatD1Ev(ptr noundef nonnull align 8 dereferenceable(96) %11) #15
  call void @llvm.lifetime.end.p0(i64 96, ptr nonnull %11) #15
  br label %50

50:                                               ; preds = %49, %43
  %.pn12.pn.pn = phi { ptr, i32 } [ %.pn12.pn, %49 ], [ %44, %43 ]
  call void @_ZN2cv3MatD1Ev(ptr noundef nonnull align 8 dereferenceable(96) %9) #15
  call void @llvm.lifetime.end.p0(i64 96, ptr nonnull %9) #15
  call void @_ZN13Domain_FilterD2Ev(ptr noundef nonnull align 8 dereferenceable(768) %8) #15
  call void @llvm.lifetime.end.p0(i64 768, ptr nonnull %8) #15
  call void @_ZN2cv3MatD1Ev(ptr noundef nonnull align 8 dereferenceable(96) %7) #15
  br label %51

51:                                               ; preds = %50, %41
  %.pn12.pn.pn.pn = phi { ptr, i32 } [ %.pn12.pn.pn, %50 ], [ %42, %41 ]
  call void @llvm.lifetime.end.p0(i64 96, ptr nonnull %7) #15
  call void @_ZN2cv5utils5trace7details6RegionD2Ev(ptr noundef nonnull align 8 dereferenceable(12) %6) #15
  call void @llvm.lifetime.end.p0(i64 16, ptr nonnull %6) #15
  resume { ptr, i32 } %.pn12.pn.pn.pn
}